target datalayout = "e-m:e-p270:32:32-p271:32:32-p272:64:64-i64:64-i128:128-f80:128-n8:16:32:64-S128"
target triple = "x86_64-pc-linux-gnu"

; Function Attrs: nounwind sspstrong uwtable
define internal i64 @pm_encoding_emacs_mule_char_width(ptr noundef %0, i64 noundef %1) #0 {
  %3 = alloca i64, align 8
  %4 = alloca ptr, align 8
  %5 = alloca i64, align 8
  store ptr %0, ptr %4, align 8, !tbaa !7
  store i64 %1, ptr %5, align 8, !tbaa !12
  %6 = load ptr, ptr %4, align 8, !tbaa !7
  %7 = load i8, ptr %6, align 1, !tbaa !16
  %8 = zext i8 %7 to i32
  %9 = icmp slt i32 %8, 128
  br i1 %9, label %10, label %11

10:                                               ; preds = %2
  store i64 1, ptr %3, align 8
  br label %138

11:                                               ; preds = %2
  %12 = load i64, ptr %5, align 8, !tbaa !12
  %13 = icmp sgt i64 %12, 1
  br i1 %13, label %14, label %33

14:                                               ; preds = %11
  %15 = load ptr, ptr %4, align 8, !tbaa !7
  %16 = getelementptr i8, ptr %15, i64 0
  %17 = load i8, ptr %16, align 1, !tbaa !16
  %18 = zext i8 %17 to i32
  %19 = icmp sge i32 %18, 129
  br i1 %19, label %20, label %33

20:                                               ; preds = %14
  %21 = load ptr, ptr %4, align 8, !tbaa !7
  %22 = getelementptr i8, ptr %21, i64 0
  %23 = load i8, ptr %22, align 1, !tbaa !16
  %24 = zext i8 %23 to i32
  %25 = icmp sle i32 %24, 143
  br i1 %25, label %26, label %33

26:                                               ; preds = %20
  %27 = load ptr, ptr %4, align 8, !tbaa !7
  %28 = getelementptr i8, ptr %27, i64 1
  %29 = load i8, ptr %28, align 1, !tbaa !16
  %30 = zext i8 %29 to i32
  %31 = icmp sge i32 %30, 160
  br i1 %31, label %32, label %33

32:                                               ; preds = %26
  store i64 2, ptr %3, align 8
  br label %138

33:                                               ; preds = %26, %20, %14, %11
  %34 = load i64, ptr %5, align 8, !tbaa !12
  %35 = icmp sgt i64 %34, 2
  br i1 %35, label %36, label %85

36:                                               ; preds = %33
  %37 = load ptr, ptr %4, align 8, !tbaa !7
  %38 = getelementptr i8, ptr %37, i64 0
  %39 = load i8, ptr %38, align 1, !tbaa !16
  %40 = zext i8 %39 to i32
  %41 = icmp sge i32 %40, 144
  br i1 %41, label %42, label %54

42:                                               ; preds = %36
  %43 = load ptr, ptr %4, align 8, !tbaa !7
  %44 = getelementptr i8, ptr %43, i64 0
  %45 = load i8, ptr %44, align 1, !tbaa !16
  %46 = zext i8 %45 to i32
  %47 = icmp sle i32 %46, 153
  br i1 %47, label %48, label %54

48:                                               ; preds = %42
  %49 = load ptr, ptr %4, align 8, !tbaa !7
  %50 = getelementptr i8, ptr %49, i64 1
  %51 = load i8, ptr %50, align 1, !tbaa !16
  %52 = zext i8 %51 to i32
  %53 = icmp sge i32 %52, 160
  br i1 %53, label %78, label %54

54:                                               ; preds = %48, %42, %36
  %55 = load ptr, ptr %4, align 8, !tbaa !7
  %56 = getelementptr i8, ptr %55, i64 0
  %57 = load i8, ptr %56, align 1, !tbaa !16
  %58 = zext i8 %57 to i32
  %59 = icmp eq i32 %58, 154
  br i1 %59, label %66, label %60

60:                                               ; preds = %54
  %61 = load ptr, ptr %4, align 8, !tbaa !7
  %62 = getelementptr i8, ptr %61, i64 0
  %63 = load i8, ptr %62, align 1, !tbaa !16
  %64 = zext i8 %63 to i32
  %65 = icmp eq i32 %64, 155
  br i1 %65, label %66, label %85

66:                                               ; preds = %60, %54
  %67 = load ptr, ptr %4, align 8, !tbaa !7
  %68 = getelementptr i8, ptr %67, i64 1
  %69 = load i8, ptr %68, align 1, !tbaa !16
  %70 = zext i8 %69 to i32
  %71 = icmp sge i32 %70, 224
  br i1 %71, label %72, label %85

72:                                               ; preds = %66
  %73 = load ptr, ptr %4, align 8, !tbaa !7
  %74 = getelementptr i8, ptr %73, i64 1
  %75 = load i8, ptr %74, align 1, !tbaa !16
  %76 = zext i8 %75 to i32
  %77 = icmp sle i32 %76, 239
  br i1 %77, label %78, label %85

78:                                               ; preds = %72, %48
  %79 = load ptr, ptr %4, align 8, !tbaa !7
  %80 = getelementptr i8, ptr %79, i64 2
  %81 = load i8, ptr %80, align 1, !tbaa !16
  %82 = zext i8 %81 to i32
  %83 = icmp sge i32 %82, 160
  br i1 %83, label %84, label %85

84:                                               ; preds = %78
  store i64 3, ptr %3, align 8
  br label %138

85:                                               ; preds = %78, %72, %66, %60, %33
  %86 = load i64, ptr %5, align 8, !tbaa !12
  %87 = icmp sgt i64 %86, 3
  br i1 %87, label %88, label %137

88:                                               ; preds = %85
  %89 = load ptr, ptr %4, align 8, !tbaa !7
  %90 = getelementptr i8, ptr %89, i64 0
  %91 = load i8, ptr %90, align 1, !tbaa !16
  %92 = zext i8 %91 to i32
  %93 = icmp eq i32 %92, 156
  br i1 %93, label %94, label %106

94:                                               ; preds = %88
  %95 = load ptr, ptr %4, align 8, !tbaa !7
  %96 = getelementptr i8, ptr %95, i64 1
  %97 = load i8, ptr %96, align 1, !tbaa !16
  %98 = zext i8 %97 to i32
  %99 = icmp sge i32 %98, 240
  br i1 %99, label %100, label %106

100:                                              ; preds = %94
  %101 = load ptr, ptr %4, align 8, !tbaa !7
  %102 = getelementptr i8, ptr %101, i64 1
  %103 = load i8, ptr %102, align 1, !tbaa !16
  %104 = zext i8 %103 to i32
  %105 = icmp sle i32 %104, 244
  br i1 %105, label %124, label %106

106:                                              ; preds = %100, %94, %88
  %107 = load ptr, ptr %4, align 8, !tbaa !7
  %108 = getelementptr i8, ptr %107, i64 0
  %109 = load i8, ptr %108, align 1, !tbaa !16
  %110 = zext i8 %109 to i32
  %111 = icmp eq i32 %110, 157
  br i1 %111, label %112, label %137

112:                                              ; preds = %106
  %113 = load ptr, ptr %4, align 8, !tbaa !7
  %114 = getelementptr i8, ptr %113, i64 1
  %115 = load i8, ptr %114, align 1, !tbaa !16
  %116 = zext i8 %115 to i32
  %117 = icmp sge i32 %116, 245
  br i1 %117, label %118, label %137

118:                                              ; preds = %112
  %119 = load ptr, ptr %4, align 8, !tbaa !7
  %120 = getelementptr i8, ptr %119, i64 1
  %121 = load i8, ptr %120, align 1, !tbaa !16
  %122 = zext i8 %121 to i32
  %123 = icmp sle i32 %122, 254
  br i1 %123, label %124, label %137

124:                                              ; preds = %118, %100
  %125 = load ptr, ptr %4, align 8, !tbaa !7
  %126 = getelementptr i8, ptr %125, i64 2
  %127 = load i8, ptr %126, align 1, !tbaa !16
  %128 = zext i8 %127 to i32
  %129 = icmp sge i32 %128, 160
  br i1 %129, label %130, label %137

130:                                              ; preds = %124
  %131 = load ptr, ptr %4, align 8, !tbaa !7
  %132 = getelementptr i8, ptr %131, i64 3
  %133 = load i8, ptr %132, align 1, !tbaa !16
  %134 = zext i8 %133 to i32
  %135 = icmp sge i32 %134, 160
  br i1 %135, label %136, label %137

136:                                              ; preds = %130
  store i64 4, ptr %3, align 8
  br label %138

137:                                              ; preds = %130, %124, %118, %112, %106, %85
  store i64 0, ptr %3, align 8
  br label %138

138:                                              ; preds = %137, %136, %84, %32, %10
  %139 = load i64, ptr %3, align 8
  ret i64 %139
}