; Function Attrs: mustprogress nofree norecurse nosync nounwind sspstrong willreturn memory(argmem: read) uwtable
define internal range(i64 0, 5) i64 @pm_encoding_emacs_mule_char_width(ptr noundef readonly captures(none) %0, i64 noundef %1) #2 {
  %3 = load i8, ptr %0, align 1, !tbaa !7
  %4 = icmp sgt i8 %3, -1
  br i1 %4, label %47, label %5

5:                                                ; preds = %2
  %6 = icmp sgt i64 %1, 1
  %.not = icmp ne i8 %3, -128
  %or.cond.not40 = and i1 %6, %.not
  %7 = icmp samesign ult i8 %3, -112
  %or.cond30 = and i1 %7, %or.cond.not40
  br i1 %or.cond30, label %8, label %12

8:                                                ; preds = %5
  %9 = getelementptr i8, ptr %0, i64 1
  %10 = load i8, ptr %9, align 1, !tbaa !7
  %11 = icmp ugt i8 %10, -97
  br i1 %11, label %47, label %12

12:                                               ; preds = %8, %5
  %13 = icmp sgt i64 %1, 2
  br i1 %13, label %14, label %.thread37

14:                                               ; preds = %12
  %15 = add nsw i8 %3, 112
  %or.cond31 = icmp ult i8 %15, 10
  br i1 %or.cond31, label %16, label %20

16:                                               ; preds = %14
  %17 = getelementptr i8, ptr %0, i64 1
  %18 = load i8, ptr %17, align 1, !tbaa !7
  %19 = icmp ugt i8 %18, -97
  br i1 %19, label %26, label %.thread

20:                                               ; preds = %14
  %21 = and i8 %3, -2
  %switch = icmp eq i8 %21, -102
  br i1 %switch, label %22, label %.thread

22:                                               ; preds = %20
  %23 = getelementptr i8, ptr %0, i64 1
  %24 = load i8, ptr %23, align 1, !tbaa !7
  %25 = and i8 %24, -16
  %or.cond32 = icmp eq i8 %25, -32
  br i1 %or.cond32, label %26, label %.thread

26:                                               ; preds = %22, %16
  %27 = getelementptr i8, ptr %0, i64 2
  %28 = load i8, ptr %27, align 1, !tbaa !7
  %29 = icmp ugt i8 %28, -97
  br i1 %29, label %47, label %.thread

.thread:                                          ; preds = %16, %20, %26, %22
  %.not41 = icmp eq i64 %1, 3
  br i1 %.not41, label %.thread37, label %30

30:                                               ; preds = %.thread
  switch i8 %3, label %.thread37 [
    i8 -100, label %31
    i8 -99, label %35
  ]

31:                                               ; preds = %30
  %32 = getelementptr i8, ptr %0, i64 1
  %33 = load i8, ptr %32, align 1, !tbaa !7
  %34 = add i8 %33, 16
  %or.cond33 = icmp ult i8 %34, 5
  br i1 %or.cond33, label %39, label %.thread37

35:                                               ; preds = %30
  %36 = getelementptr i8, ptr %0, i64 1
  %37 = load i8, ptr %36, align 1, !tbaa !7
  %38 = add i8 %37, 1
  %or.cond34 = icmp ult i8 %38, -10
  br i1 %or.cond34, label %.thread37, label %39

39:                                               ; preds = %35, %31
  %40 = getelementptr i8, ptr %0, i64 2
  %41 = load i8, ptr %40, align 1, !tbaa !7
  %42 = icmp ugt i8 %41, -97
  br i1 %42, label %43, label %.thread37

43:                                               ; preds = %39
  %44 = getelementptr i8, ptr %0, i64 3
  %45 = load i8, ptr %44, align 1, !tbaa !7
  %46 = icmp ugt i8 %45, -97
  br i1 %46, label %47, label %.thread37

.thread37:                                        ; preds = %30, %31, %12, %43, %39, %35, %.thread
  br label %47

47:                                               ; preds = %43, %26, %8, %2, %.thread37
  %.0 = phi i64 [ 0, %.thread37 ], [ 1, %2 ], [ 2, %8 ], [ 3, %26 ], [ 4, %43 ]
  ret i64 %.0
}